; Function Attrs: mustprogress uwtable
define void @_ZN4YAML19GraphBuilderAdapter14RegisterAnchorEmPv(ptr noundef nonnull align 8 dereferenceable(136) %0, i64 noundef %1, ptr noundef %2) local_unnamed_addr #0 align 2 personality ptr @__gxx_personality_v0 {
  %.not = icmp eq i64 %1, 0
  br i1 %.not, label %18, label %4

4:                                                ; preds = %3
  %5 = getelementptr inbounds nuw i8, ptr %0, i64 96
  %6 = getelementptr inbounds nuw i8, ptr %0, i64 104
  %7 = load ptr, ptr %6, align 8, !tbaa !36
  %8 = load ptr, ptr %5, align 8, !tbaa !37
  %9 = ptrtoint ptr %7 to i64
  %10 = ptrtoint ptr %8 to i64
  %11 = sub i64 %9, %10
  %12 = ashr exact i64 %11, 3
  %13 = icmp ugt i64 %1, %12
  br i1 %13, label %_ZNSt6vectorIPvSaIS0_EE6resizeEm.exit.i, label %_ZN4YAML10AnchorDictIPvE8RegisterEmS1_.exit

_ZNSt6vectorIPvSaIS0_EE6resizeEm.exit.i:          ; preds = %4
  %14 = sub nuw i64 %1, %12
  tail call void @_ZNSt6vectorIPvSaIS0_EE17_M_default_appendEm(ptr noundef nonnull align 8 dereferenceable(24) %5, i64 noundef %14)
  %.pre.i = load ptr, ptr %5, align 8, !tbaa !37
  br label %_ZN4YAML10AnchorDictIPvE8RegisterEmS1_.exit

_ZN4YAML10AnchorDictIPvE8RegisterEmS1_.exit:      ; preds = %4, %_ZNSt6vectorIPvSaIS0_EE6resizeEm.exit.i
  %15 = phi ptr [ %.pre.i, %_ZNSt6vectorIPvSaIS0_EE6resizeEm.exit.i ], [ %8, %4 ]
  %16 = getelementptr ptr, ptr %15, i64 %1
  %17 = getelementptr i8, ptr %16, i64 -8
  store ptr %2, ptr %17, align 8, !tbaa !38
  br label %18

18:                                               ; preds = %_ZN4YAML10AnchorDictIPvE8RegisterEmS1_.exit, %3
  ret void
}